; ModuleID = '7/11.c'
source_filename = "7/11.c"
target datalayout = "e-m:e-p270:32:32-p271:32:32-p272:64:64-i64:64-f80:128-n8:16:32:64-S128"
target triple = "x86_64-pc-linux-gnu"

@.str = private unnamed_addr constant [3 x i8] c"%s\00", align 1

; Function Attrs: noinline nounwind uwtable
define dso_local i32 @main() #0 {
  %1 = alloca i32, align 4
  %2 = alloca [1000 x i8], align 16
  %3 = alloca [1000 x i8], align 16
  %4 = alloca [1000 x i8], align 16
  %5 = alloca i32, align 4
  %6 = alloca i32, align 4
  %7 = alloca i32, align 4
  %8 = alloca i32, align 4
  %9 = alloca i32, align 4
  %10 = alloca i32, align 4
  store i32 0, i32* %1, align 4
  %11 = getelementptr inbounds [1000 x i8], [1000 x i8]* %2, i64 0, i64 0
  %12 = call i32 (i8*, ...) bitcast (i32 (...)* @gets to i32 (i8*, ...)*)(i8* %11)
  %13 = getelementptr inbounds [1000 x i8], [1000 x i8]* %3, i64 0, i64 0
  %14 = call i32 (i8*, ...) bitcast (i32 (...)* @gets to i32 (i8*, ...)*)(i8* %13)
  %15 = getelementptr inbounds [1000 x i8], [1000 x i8]* %4, i64 0, i64 0
  %16 = call i32 (i8*, ...) bitcast (i32 (...)* @gets to i32 (i8*, ...)*)(i8* %15)
  %17 = getelementptr inbounds [1000 x i8], [1000 x i8]* %2, i64 0, i64 0
  %18 = call i64 @strlen(i8* %17) #3
  %19 = trunc i64 %18 to i32
  store i32 %19, i32* %5, align 4
  %20 = getelementptr inbounds [1000 x i8], [1000 x i8]* %3, i64 0, i64 0
  %21 = call i64 @strlen(i8* %20) #3
  %22 = trunc i64 %21 to i32
  store i32 %22, i32* %6, align 4
  %23 = getelementptr inbounds [1000 x i8], [1000 x i8]* %4, i64 0, i64 0
  %24 = call i64 @strlen(i8* %23) #3
  %25 = trunc i64 %24 to i32
  store i32 %25, i32* %7, align 4
  store i32 0, i32* %9, align 4
  br label %26

26:                                               ; preds = %95, %0
  %27 = load i32, i32* %9, align 4
  %28 = load i32, i32* %6, align 4
  %29 = icmp slt i32 %27, %28
  br i1 %29, label %30, label %98

30:                                               ; preds = %26
  store i32 0, i32* %8, align 4
  br label %31

31:                                               ; preds = %91, %30
  %32 = load i32, i32* %8, align 4
  %33 = load i32, i32* %5, align 4
  %34 = icmp slt i32 %32, %33
  br i1 %34, label %35, label %94

35:                                               ; preds = %31
  %36 = load i32, i32* %8, align 4
  %37 = sext i32 %36 to i64
  %38 = getelementptr inbounds [1000 x i8], [1000 x i8]* %2, i64 0, i64 %37
  %39 = load i8, i8* %38, align 1
  %40 = sext i8 %39 to i32
  %41 = getelementptr inbounds [1000 x i8], [1000 x i8]* %3, i64 0, i64 0
  %42 = load i8, i8* %41, align 16
  %43 = sext i8 %42 to i32
  %44 = icmp ne i32 %40, %43
  br i1 %44, label %45, label %46

45:                                               ; preds = %35
  br label %91

46:                                               ; preds = %35
  %47 = load i32, i32* %8, align 4
  %48 = sext i32 %47 to i64
  %49 = getelementptr inbounds [1000 x i8], [1000 x i8]* %2, i64 0, i64 %48
  %50 = load i8, i8* %49, align 1
  %51 = sext i8 %50 to i32
  %52 = getelementptr inbounds [1000 x i8], [1000 x i8]* %3, i64 0, i64 0
  %53 = load i8, i8* %52, align 16
  %54 = sext i8 %53 to i32
  %55 = icmp eq i32 %51, %54
  br i1 %55, label %56, label %90

56:                                               ; preds = %46
  %57 = load i32, i32* %8, align 4
  %58 = add nsw i32 %57, 1
  %59 = sext i32 %58 to i64
  %60 = getelementptr inbounds [1000 x i8], [1000 x i8]* %2, i64 0, i64 %59
  %61 = load i8, i8* %60, align 1
  %62 = sext i8 %61 to i32
  %63 = getelementptr inbounds [1000 x i8], [1000 x i8]* %3, i64 0, i64 1
  %64 = load i8, i8* %63, align 1
  %65 = sext i8 %64 to i32
  %66 = icmp eq i32 %62, %65
  br i1 %66, label %67, label %90

67:                                               ; preds = %56
  %68 = load i32, i32* %8, align 4
  %69 = add nsw i32 %68, 2
  %70 = sext i32 %69 to i64
  %71 = getelementptr inbounds [1000 x i8], [1000 x i8]* %2, i64 0, i64 %70
  %72 = load i8, i8* %71, align 1
  %73 = sext i8 %72 to i32
  %74 = getelementptr inbounds [1000 x i8], [1000 x i8]* %3, i64 0, i64 2
  %75 = load i8, i8* %74, align 2
  %76 = sext i8 %75 to i32
  %77 = icmp eq i32 %73, %76
  br i1 %77, label %78, label %90

78:                                               ; preds = %67
  %79 = load i32, i32* %8, align 4
  %80 = add nsw i32 %79, 3
  %81 = sext i32 %80 to i64
  %82 = getelementptr inbounds [1000 x i8], [1000 x i8]* %2, i64 0, i64 %81
  %83 = load i8, i8* %82, align 1
  %84 = sext i8 %83 to i32
  %85 = getelementptr inbounds [1000 x i8], [1000 x i8]* %3, i64 0, i64 3
  %86 = load i8, i8* %85, align 1
  %87 = sext i8 %86 to i32
  %88 = icmp eq i32 %84, %87
  br i1 %88, label %89, label %90

89:                                               ; preds = %78
  br label %94

90:                                               ; preds = %78, %67, %56, %46
  br label %91

91:                                               ; preds = %90, %45
  %92 = load i32, i32* %8, align 4
  %93 = add nsw i32 %92, 1
  store i32 %93, i32* %8, align 4
  br label %31

94:                                               ; preds = %89, %31
  br label %95

95:                                               ; preds = %94
  %96 = load i32, i32* %9, align 4
  %97 = add nsw i32 %96, 1
  store i32 %97, i32* %9, align 4
  br label %26

98:                                               ; preds = %26
  %99 = load i32, i32* %8, align 4
  %100 = load i32, i32* %5, align 4
  %101 = icmp slt i32 %99, %100
  br i1 %101, label %102, label %124

102:                                              ; preds = %98
  %103 = load i32, i32* %8, align 4
  store i32 %103, i32* %10, align 4
  br label %104

104:                                              ; preds = %120, %102
  %105 = load i32, i32* %10, align 4
  %106 = load i32, i32* %8, align 4
  %107 = load i32, i32* %6, align 4
  %108 = add nsw i32 %106, %107
  %109 = icmp slt i32 %105, %108
  br i1 %109, label %110, label %123

110:                                              ; preds = %104
  %111 = load i32, i32* %10, align 4
  %112 = load i32, i32* %8, align 4
  %113 = sub nsw i32 %111, %112
  %114 = sext i32 %113 to i64
  %115 = getelementptr inbounds [1000 x i8], [1000 x i8]* %4, i64 0, i64 %114
  %116 = load i8, i8* %115, align 1
  %117 = load i32, i32* %10, align 4
  %118 = sext i32 %117 to i64
  %119 = getelementptr inbounds [1000 x i8], [1000 x i8]* %2, i64 0, i64 %118
  store i8 %116, i8* %119, align 1
  br label %120

120:                                              ; preds = %110
  %121 = load i32, i32* %10, align 4
  %122 = add nsw i32 %121, 1
  store i32 %122, i32* %10, align 4
  br label %104

123:                                              ; preds = %104
  br label %124

124:                                              ; preds = %123, %98
  %125 = getelementptr inbounds [1000 x i8], [1000 x i8]* %2, i64 0, i64 0
  %126 = call i32 (i8*, ...) @printf(i8* getelementptr inbounds ([3 x i8], [3 x i8]* @.str, i64 0, i64 0), i8* %125)
  ret i32 0
}

declare dso_local i32 @gets(...) #1

; Function Attrs: nounwind readonly
declare dso_local i64 @strlen(i8*) #2

declare dso_local i32 @printf(i8*, ...) #1


!llvm.module.flags = !{!0}
!llvm.ident = !{!1}

!0 = !{i32 1, !"wchar_size", i32 4}
!1 = !{!"clang version 10.0.0-4ubuntu1 "}
